; Function Attrs: mustprogress uwtable
define noundef double @_ZN8QuantLib11AlphaFinder19valueAtTurningPointEd(ptr nocapture noundef nonnull align 8 dereferenceable(176) %this, double noundef %alpha) local_unnamed_addr #1 align 2 {
entry:
  %q = alloca %"class.QuantLib::quadratic", align 8
  %call = tail call noundef double @_ZN8QuantLib11AlphaFinder17computeLinearPartEd(ptr noundef nonnull align 8 dereferenceable(176) %this, double noundef %alpha)
  %linearPart_ = getelementptr inbounds nuw i8, ptr %this, i64 144
  store double %call, ptr %linearPart_, align 8, !tbaa !34
  %0 = load ptr, ptr %this, align 8, !tbaa !3
  %cmp.not.i.i = icmp eq ptr %0, null
  br i1 %cmp.not.i.i, label %cond.false.i.i, label %_ZNK5boost10shared_ptrIN8QuantLib9AlphaFormEEptEv.exit.i, !prof !10

cond.false.i.i:                                   ; preds = %entry
  tail call void @_ZN5boost16assertion_failedEPKcS1_S1_l(ptr noundef nonnull @.str, ptr noundef nonnull @__PRETTY_FUNCTION__._ZNK5boost10shared_ptrIN8QuantLib9AlphaFormEEptEv, ptr noundef nonnull @.str.1, i64 noundef 784)
  %.pre.i.i = load ptr, ptr %this, align 8, !tbaa !3
  br label %_ZNK5boost10shared_ptrIN8QuantLib9AlphaFormEEptEv.exit.i

_ZNK5boost10shared_ptrIN8QuantLib9AlphaFormEEptEv.exit.i: ; preds = %cond.false.i.i, %entry
  %1 = phi ptr [ %0, %entry ], [ %.pre.i.i, %cond.false.i.i ]
  %vtable.i = load ptr, ptr %1, align 8, !tbaa !11
  %vfn.i = getelementptr inbounds i8, ptr %vtable.i, i64 24
  %2 = load ptr, ptr %vfn.i, align 8
  tail call void %2(ptr noundef nonnull align 8 dereferenceable(8) %1, double noundef %alpha)
  %stepindex_.i = getelementptr inbounds nuw i8, ptr %this, i64 16
  %3 = load i32, ptr %stepindex_.i, align 8, !tbaa !13
  %cmp.not10.i = icmp slt i32 %3, 0
  br i1 %cmp.not10.i, label %_ZN8QuantLib11AlphaFinder20computeQuadraticPartEd.exit, label %for.body.lr.ph.i

for.body.lr.ph.i:                                 ; preds = %_ZNK5boost10shared_ptrIN8QuantLib9AlphaFormEEptEv.exit.i
  %ratetwohomogeneousvols_.i = getelementptr inbounds nuw i8, ptr %this, i64 48
  br label %for.body.i

for.body.i:                                       ; preds = %_ZNK5boost10shared_ptrIN8QuantLib9AlphaFormEEdeEv.exit.i, %for.body.lr.ph.i
  %indvars.iv.i = phi i64 [ 0, %for.body.lr.ph.i ], [ %indvars.iv.next.i, %_ZNK5boost10shared_ptrIN8QuantLib9AlphaFormEEdeEv.exit.i ]
  %var.012.i = phi double [ 0.000000e+00, %for.body.lr.ph.i ], [ %10, %_ZNK5boost10shared_ptrIN8QuantLib9AlphaFormEEdeEv.exit.i ]
  %4 = load ptr, ptr %ratetwohomogeneousvols_.i, align 8, !tbaa !23
  %add.ptr.i.i = getelementptr inbounds nuw double, ptr %4, i64 %indvars.iv.i
  %5 = load double, ptr %add.ptr.i.i, align 8, !tbaa !24
  %6 = load ptr, ptr %this, align 8, !tbaa !3
  %cmp.not.i7.i = icmp eq ptr %6, null
  br i1 %cmp.not.i7.i, label %cond.false.i8.i, label %_ZNK5boost10shared_ptrIN8QuantLib9AlphaFormEEdeEv.exit.i, !prof !10

cond.false.i8.i:                                  ; preds = %for.body.i
  tail call void @_ZN5boost16assertion_failedEPKcS1_S1_l(ptr noundef nonnull @.str, ptr noundef nonnull @__PRETTY_FUNCTION__._ZNK5boost10shared_ptrIN8QuantLib9AlphaFormEEdeEv, ptr noundef nonnull @.str.1, i64 noundef 778)
  %.pre.i9.i = load ptr, ptr %this, align 8, !tbaa !3
  br label %_ZNK5boost10shared_ptrIN8QuantLib9AlphaFormEEdeEv.exit.i

_ZNK5boost10shared_ptrIN8QuantLib9AlphaFormEEdeEv.exit.i: ; preds = %cond.false.i8.i, %for.body.i
  %7 = phi ptr [ %6, %for.body.i ], [ %.pre.i9.i, %cond.false.i8.i ]
  %vtable5.i = load ptr, ptr %7, align 8, !tbaa !11
  %vfn6.i = getelementptr inbounds i8, ptr %vtable5.i, i64 16
  %8 = load ptr, ptr %vfn6.i, align 8
  %9 = trunc nuw nsw i64 %indvars.iv.i to i32
  %call7.i = tail call noundef double %8(ptr noundef nonnull align 8 dereferenceable(8) %7, i32 noundef %9)
  %mul.i = fmul double %5, %call7.i
  %10 = tail call double @llvm.fmuladd.f64(double %mul.i, double %mul.i, double %var.012.i)
  %indvars.iv.next.i = add nuw nsw i64 %indvars.iv.i, 1
  %11 = load i32, ptr %stepindex_.i, align 8, !tbaa !13
  %12 = sext i32 %11 to i64
  %cmp.not.not.i = icmp slt i64 %indvars.iv.i, %12
  br i1 %cmp.not.not.i, label %for.body.i, label %_ZN8QuantLib11AlphaFinder20computeQuadraticPartEd.exit, !llvm.loop !27

_ZN8QuantLib11AlphaFinder20computeQuadraticPartEd.exit: ; preds = %_ZNK5boost10shared_ptrIN8QuantLib9AlphaFormEEdeEv.exit.i, %_ZNK5boost10shared_ptrIN8QuantLib9AlphaFormEEptEv.exit.i
  %var.0.lcssa.i = phi double [ 0.000000e+00, %_ZNK5boost10shared_ptrIN8QuantLib9AlphaFormEEptEv.exit.i ], [ %10, %_ZNK5boost10shared_ptrIN8QuantLib9AlphaFormEEdeEv.exit.i ]
  %w1_.i = getelementptr inbounds nuw i8, ptr %this, i64 128
  %13 = load double, ptr %w1_.i, align 8, !tbaa !22
  %mul10.i = fmul double %13, %13
  %mul11.i = fmul double %var.0.lcssa.i, %mul10.i
  %quadraticPart_ = getelementptr inbounds nuw i8, ptr %this, i64 152
  store double %mul11.i, ptr %quadraticPart_, align 8, !tbaa !35
  call void @llvm.lifetime.start.p0(i64 24, ptr nonnull %q) #14
  %14 = load double, ptr %linearPart_, align 8, !tbaa !34
  %constantPart_ = getelementptr inbounds nuw i8, ptr %this, i64 136
  %15 = load double, ptr %constantPart_, align 8, !tbaa !28
  call void @_ZN8QuantLib9quadraticC1Eddd(ptr noundef nonnull align 8 dereferenceable(24) %q, double noundef %mul11.i, double noundef %14, double noundef %15)
  %call5 = call noundef double @_ZNK8QuantLib9quadratic19valueAtTurningPointEv(ptr noundef nonnull align 8 dereferenceable(24) %q)
  call void @llvm.lifetime.end.p0(i64 24, ptr nonnull %q) #14
  ret double %call5
}